; Function Attrs: mustprogress nofree nounwind willreturn memory(read, argmem: readwrite, inaccessiblemem: readwrite) uwtable
define internal void @_ZN12_GLOBAL__N_126InlineCostFeaturesAnalyzer15onBlockAnalyzedEPKN4llvm10BasicBlockE(ptr noundef nonnull align 8 captures(none) dereferenceable(736) %0, ptr noundef readonly %1) unnamed_addr #21 align 2 {
_ZNK4llvm10BasicBlock13getTerminatorEv.exit:
  %2 = getelementptr inbounds nuw i8, ptr %1, i64 48
  %3 = load ptr, ptr %2, align 8
  %4 = icmp ne ptr %2, %3
  tail call void @llvm.assume(i1 %4)
  %5 = getelementptr inbounds i8, ptr %3, i64 -24
  %6 = load i8, ptr %5, align 8
  %7 = add i8 %6, -30
  %8 = icmp ult i8 %7, 11
  %spec.select.i = select i1 %8, ptr %5, ptr null
  %9 = tail call noundef i32 @_ZNK4llvm11Instruction16getNumSuccessorsEv(ptr noundef nonnull align 8 dereferenceable(72) %spec.select.i) #30
  %10 = icmp ugt i32 %9, 1
  br i1 %10, label %11, label %13

11:                                               ; preds = %_ZNK4llvm10BasicBlock13getTerminatorEv.exit
  %12 = getelementptr inbounds nuw i8, ptr %0, i64 676
  store i32 1, ptr %12, align 4
  br label %13

13:                                               ; preds = %11, %_ZNK4llvm10BasicBlock13getTerminatorEv.exit
  %14 = getelementptr inbounds nuw i8, ptr %0, i64 700
  %15 = load i32, ptr %14, align 4
  %16 = getelementptr inbounds nuw i8, ptr %0, i64 704
  %17 = load i32, ptr %16, align 8
  %18 = sub nsw i32 %17, %15
  store i32 %18, ptr %16, align 8
  ret void
}